target datalayout = "e-m:e-p270:32:32-p271:32:32-p272:64:64-i64:64-i128:128-f80:128-n8:16:32:64-S128"
target triple = "x86_64-pc-linux-gnu"

%"class.OpenImageIO::v3_1_0::bmp_pvt::DibInformationHeader" = type { i32, i32, i32, i16, i16, i32, i32, i32, i32, i32, i32, i32, i32, i32, i32, i32, i32, i32, i32, i32, i32, i32, i32, i32, i32, i32, i32, i32, i32, i32, i32, i32 }

; Function Attrs: mustprogress uwtable
define linkonce_odr hidden noundef zeroext i1 @_ZN11OpenImageIO6v3_1_07bmp_pvt6fwriteIsEEbPNS0_10Filesystem7IOProxyEPKT_(ptr noundef %0, ptr noundef %1) #4 comdat {
  %3 = alloca ptr, align 8
  %4 = alloca ptr, align 8
  store ptr %0, ptr %3, align 8, !tbaa !8
  store ptr %1, ptr %4, align 8, !tbaa !10
  %5 = load ptr, ptr %3, align 8, !tbaa !8
  %6 = load ptr, ptr %4, align 8, !tbaa !10
  %7 = load ptr, ptr %5, align 8, !tbaa !14
  %8 = getelementptr inbounds ptr, ptr %7, i64 8
  %9 = load ptr, ptr %8, align 8
  %10 = call noundef i64 %9(ptr noundef nonnull align 8 dereferenceable(88) %5, ptr noundef %6, i64 noundef 2)
  %11 = icmp eq i64 %10, 2
  ret i1 %11
}

; Function Attrs: mustprogress uwtable
define linkonce_odr hidden noundef zeroext i1 @_ZN11OpenImageIO6v3_1_07bmp_pvt6fwriteIiEEbPNS0_10Filesystem7IOProxyEPKT_(ptr noundef %0, ptr noundef %1) #4 comdat {
  %3 = alloca ptr, align 8
  %4 = alloca ptr, align 8
  store ptr %0, ptr %3, align 8, !tbaa !8
  store ptr %1, ptr %4, align 8, !tbaa !16
  %5 = load ptr, ptr %3, align 8, !tbaa !8
  %6 = load ptr, ptr %4, align 8, !tbaa !16
  %7 = load ptr, ptr %5, align 8, !tbaa !14
  %8 = getelementptr inbounds ptr, ptr %7, i64 8
  %9 = load ptr, ptr %8, align 8
  %10 = call noundef i64 %9(ptr noundef nonnull align 8 dereferenceable(88) %5, ptr noundef %6, i64 noundef 4)
  %11 = icmp eq i64 %10, 4
  ret i1 %11
}

; Function Attrs: mustprogress uwtable
define hidden noundef zeroext i1 @_ZN11OpenImageIO6v3_1_07bmp_pvt20DibInformationHeader12write_headerEPNS0_10Filesystem7IOProxyE(ptr noundef nonnull align 4 dereferenceable(124) %0, ptr noundef %1) #4 align 2 {
  %3 = alloca i1, align 1
  %4 = alloca ptr, align 8
  %5 = alloca ptr, align 8
  store ptr %0, ptr %4, align 8, !tbaa !27
  store ptr %1, ptr %5, align 8, !tbaa !8
  %6 = load ptr, ptr %4, align 8
  %7 = load ptr, ptr %5, align 8, !tbaa !8
  %8 = getelementptr inbounds nuw %"class.OpenImageIO::v3_1_0::bmp_pvt::DibInformationHeader", ptr %6, i32 0, i32 0
  %9 = call noundef zeroext i1 @_ZN11OpenImageIO6v3_1_07bmp_pvt6fwriteIiEEbPNS0_10Filesystem7IOProxyEPKT_(ptr noundef %7, ptr noundef %8)
  br i1 %9, label %10, label %50

10:                                               ; preds = %2
  %11 = load ptr, ptr %5, align 8, !tbaa !8
  %12 = getelementptr inbounds nuw %"class.OpenImageIO::v3_1_0::bmp_pvt::DibInformationHeader", ptr %6, i32 0, i32 1
  %13 = call noundef zeroext i1 @_ZN11OpenImageIO6v3_1_07bmp_pvt6fwriteIiEEbPNS0_10Filesystem7IOProxyEPKT_(ptr noundef %11, ptr noundef %12)
  br i1 %13, label %14, label %50

14:                                               ; preds = %10
  %15 = load ptr, ptr %5, align 8, !tbaa !8
  %16 = getelementptr inbounds nuw %"class.OpenImageIO::v3_1_0::bmp_pvt::DibInformationHeader", ptr %6, i32 0, i32 2
  %17 = call noundef zeroext i1 @_ZN11OpenImageIO6v3_1_07bmp_pvt6fwriteIiEEbPNS0_10Filesystem7IOProxyEPKT_(ptr noundef %15, ptr noundef %16)
  br i1 %17, label %18, label %50

18:                                               ; preds = %14
  %19 = load ptr, ptr %5, align 8, !tbaa !8
  %20 = getelementptr inbounds nuw %"class.OpenImageIO::v3_1_0::bmp_pvt::DibInformationHeader", ptr %6, i32 0, i32 3
  %21 = call noundef zeroext i1 @_ZN11OpenImageIO6v3_1_07bmp_pvt6fwriteIsEEbPNS0_10Filesystem7IOProxyEPKT_(ptr noundef %19, ptr noundef %20)
  br i1 %21, label %22, label %50

22:                                               ; preds = %18
  %23 = load ptr, ptr %5, align 8, !tbaa !8
  %24 = getelementptr inbounds nuw %"class.OpenImageIO::v3_1_0::bmp_pvt::DibInformationHeader", ptr %6, i32 0, i32 4
  %25 = call noundef zeroext i1 @_ZN11OpenImageIO6v3_1_07bmp_pvt6fwriteIsEEbPNS0_10Filesystem7IOProxyEPKT_(ptr noundef %23, ptr noundef %24)
  br i1 %25, label %26, label %50

26:                                               ; preds = %22
  %27 = load ptr, ptr %5, align 8, !tbaa !8
  %28 = getelementptr inbounds nuw %"class.OpenImageIO::v3_1_0::bmp_pvt::DibInformationHeader", ptr %6, i32 0, i32 5
  %29 = call noundef zeroext i1 @_ZN11OpenImageIO6v3_1_07bmp_pvt6fwriteIiEEbPNS0_10Filesystem7IOProxyEPKT_(ptr noundef %27, ptr noundef %28)
  br i1 %29, label %30, label %50

30:                                               ; preds = %26
  %31 = load ptr, ptr %5, align 8, !tbaa !8
  %32 = getelementptr inbounds nuw %"class.OpenImageIO::v3_1_0::bmp_pvt::DibInformationHeader", ptr %6, i32 0, i32 6
  %33 = call noundef zeroext i1 @_ZN11OpenImageIO6v3_1_07bmp_pvt6fwriteIiEEbPNS0_10Filesystem7IOProxyEPKT_(ptr noundef %31, ptr noundef %32)
  br i1 %33, label %34, label %50

34:                                               ; preds = %30
  %35 = load ptr, ptr %5, align 8, !tbaa !8
  %36 = getelementptr inbounds nuw %"class.OpenImageIO::v3_1_0::bmp_pvt::DibInformationHeader", ptr %6, i32 0, i32 7
  %37 = call noundef zeroext i1 @_ZN11OpenImageIO6v3_1_07bmp_pvt6fwriteIiEEbPNS0_10Filesystem7IOProxyEPKT_(ptr noundef %35, ptr noundef %36)
  br i1 %37, label %38, label %50

38:                                               ; preds = %34
  %39 = load ptr, ptr %5, align 8, !tbaa !8
  %40 = getelementptr inbounds nuw %"class.OpenImageIO::v3_1_0::bmp_pvt::DibInformationHeader", ptr %6, i32 0, i32 8
  %41 = call noundef zeroext i1 @_ZN11OpenImageIO6v3_1_07bmp_pvt6fwriteIiEEbPNS0_10Filesystem7IOProxyEPKT_(ptr noundef %39, ptr noundef %40)
  br i1 %41, label %42, label %50

42:                                               ; preds = %38
  %43 = load ptr, ptr %5, align 8, !tbaa !8
  %44 = getelementptr inbounds nuw %"class.OpenImageIO::v3_1_0::bmp_pvt::DibInformationHeader", ptr %6, i32 0, i32 9
  %45 = call noundef zeroext i1 @_ZN11OpenImageIO6v3_1_07bmp_pvt6fwriteIiEEbPNS0_10Filesystem7IOProxyEPKT_(ptr noundef %43, ptr noundef %44)
  br i1 %45, label %46, label %50

46:                                               ; preds = %42
  %47 = load ptr, ptr %5, align 8, !tbaa !8
  %48 = getelementptr inbounds nuw %"class.OpenImageIO::v3_1_0::bmp_pvt::DibInformationHeader", ptr %6, i32 0, i32 10
  %49 = call noundef zeroext i1 @_ZN11OpenImageIO6v3_1_07bmp_pvt6fwriteIiEEbPNS0_10Filesystem7IOProxyEPKT_(ptr noundef %47, ptr noundef %48)
  br i1 %49, label %51, label %50

50:                                               ; preds = %46, %42, %38, %34, %30, %26, %22, %18, %14, %10, %2
  store i1 false, ptr %3, align 1
  br label %52

51:                                               ; preds = %46
  store i1 true, ptr %3, align 1
  br label %52

52:                                               ; preds = %51, %50
  %53 = load i1, ptr %3, align 1
  ret i1 %53
}