; Function Attrs: mustprogress uwtable
define hidden noundef zeroext i1 @_ZN11OpenImageIO6v3_1_07bmp_pvt20DibInformationHeader12write_headerEPNS0_10Filesystem7IOProxyE(ptr noundef nonnull align 4 dereferenceable(124) %0, ptr noundef %1) local_unnamed_addr #3 align 2 {
  %3 = load ptr, ptr %1, align 8, !tbaa !3
  %4 = getelementptr inbounds nuw i8, ptr %3, i64 64
  %5 = load ptr, ptr %4, align 8
  %6 = tail call noundef i64 %5(ptr noundef nonnull align 8 dereferenceable(88) %1, ptr noundef nonnull %0, i64 noundef 4)
  %7 = icmp eq i64 %6, 4
  br i1 %7, label %8, label %78

8:                                                ; preds = %2
  %9 = getelementptr inbounds nuw i8, ptr %0, i64 4
  %10 = load ptr, ptr %1, align 8, !tbaa !3
  %11 = getelementptr inbounds nuw i8, ptr %10, i64 64
  %12 = load ptr, ptr %11, align 8
  %13 = tail call noundef i64 %12(ptr noundef nonnull align 8 dereferenceable(88) %1, ptr noundef nonnull %9, i64 noundef 4)
  %14 = icmp eq i64 %13, 4
  br i1 %14, label %15, label %78

15:                                               ; preds = %8
  %16 = getelementptr inbounds nuw i8, ptr %0, i64 8
  %17 = load ptr, ptr %1, align 8, !tbaa !3
  %18 = getelementptr inbounds nuw i8, ptr %17, i64 64
  %19 = load ptr, ptr %18, align 8
  %20 = tail call noundef i64 %19(ptr noundef nonnull align 8 dereferenceable(88) %1, ptr noundef nonnull %16, i64 noundef 4)
  %21 = icmp eq i64 %20, 4
  br i1 %21, label %22, label %78

22:                                               ; preds = %15
  %23 = getelementptr inbounds nuw i8, ptr %0, i64 12
  %24 = load ptr, ptr %1, align 8, !tbaa !3
  %25 = getelementptr inbounds nuw i8, ptr %24, i64 64
  %26 = load ptr, ptr %25, align 8
  %27 = tail call noundef i64 %26(ptr noundef nonnull align 8 dereferenceable(88) %1, ptr noundef nonnull %23, i64 noundef 2)
  %28 = icmp eq i64 %27, 2
  br i1 %28, label %29, label %78

29:                                               ; preds = %22
  %30 = getelementptr inbounds nuw i8, ptr %0, i64 14
  %31 = load ptr, ptr %1, align 8, !tbaa !3
  %32 = getelementptr inbounds nuw i8, ptr %31, i64 64
  %33 = load ptr, ptr %32, align 8
  %34 = tail call noundef i64 %33(ptr noundef nonnull align 8 dereferenceable(88) %1, ptr noundef nonnull %30, i64 noundef 2)
  %35 = icmp eq i64 %34, 2
  br i1 %35, label %36, label %78

36:                                               ; preds = %29
  %37 = getelementptr inbounds nuw i8, ptr %0, i64 16
  %38 = load ptr, ptr %1, align 8, !tbaa !3
  %39 = getelementptr inbounds nuw i8, ptr %38, i64 64
  %40 = load ptr, ptr %39, align 8
  %41 = tail call noundef i64 %40(ptr noundef nonnull align 8 dereferenceable(88) %1, ptr noundef nonnull %37, i64 noundef 4)
  %42 = icmp eq i64 %41, 4
  br i1 %42, label %43, label %78

43:                                               ; preds = %36
  %44 = getelementptr inbounds nuw i8, ptr %0, i64 20
  %45 = load ptr, ptr %1, align 8, !tbaa !3
  %46 = getelementptr inbounds nuw i8, ptr %45, i64 64
  %47 = load ptr, ptr %46, align 8
  %48 = tail call noundef i64 %47(ptr noundef nonnull align 8 dereferenceable(88) %1, ptr noundef nonnull %44, i64 noundef 4)
  %49 = icmp eq i64 %48, 4
  br i1 %49, label %50, label %78

50:                                               ; preds = %43
  %51 = getelementptr inbounds nuw i8, ptr %0, i64 24
  %52 = load ptr, ptr %1, align 8, !tbaa !3
  %53 = getelementptr inbounds nuw i8, ptr %52, i64 64
  %54 = load ptr, ptr %53, align 8
  %55 = tail call noundef i64 %54(ptr noundef nonnull align 8 dereferenceable(88) %1, ptr noundef nonnull %51, i64 noundef 4)
  %56 = icmp eq i64 %55, 4
  br i1 %56, label %57, label %78

57:                                               ; preds = %50
  %58 = getelementptr inbounds nuw i8, ptr %0, i64 28
  %59 = load ptr, ptr %1, align 8, !tbaa !3
  %60 = getelementptr inbounds nuw i8, ptr %59, i64 64
  %61 = load ptr, ptr %60, align 8
  %62 = tail call noundef i64 %61(ptr noundef nonnull align 8 dereferenceable(88) %1, ptr noundef nonnull %58, i64 noundef 4)
  %63 = icmp eq i64 %62, 4
  br i1 %63, label %64, label %78

64:                                               ; preds = %57
  %65 = getelementptr inbounds nuw i8, ptr %0, i64 32
  %66 = load ptr, ptr %1, align 8, !tbaa !3
  %67 = getelementptr inbounds nuw i8, ptr %66, i64 64
  %68 = load ptr, ptr %67, align 8
  %69 = tail call noundef i64 %68(ptr noundef nonnull align 8 dereferenceable(88) %1, ptr noundef nonnull %65, i64 noundef 4)
  %70 = icmp eq i64 %69, 4
  br i1 %70, label %71, label %78

71:                                               ; preds = %64
  %72 = getelementptr inbounds nuw i8, ptr %0, i64 36
  %73 = load ptr, ptr %1, align 8, !tbaa !3
  %74 = getelementptr inbounds nuw i8, ptr %73, i64 64
  %75 = load ptr, ptr %74, align 8
  %76 = tail call noundef i64 %75(ptr noundef nonnull align 8 dereferenceable(88) %1, ptr noundef nonnull %72, i64 noundef 4)
  %77 = icmp eq i64 %76, 4
  br label %78

78:                                               ; preds = %71, %2, %8, %15, %22, %29, %36, %43, %50, %57, %64
  %.0 = phi i1 [ false, %64 ], [ false, %57 ], [ false, %50 ], [ false, %43 ], [ false, %36 ], [ false, %29 ], [ false, %22 ], [ false, %15 ], [ false, %8 ], [ false, %2 ], [ %77, %71 ]
  ret i1 %.0
}